target datalayout = "e-m:e-p270:32:32-p271:32:32-p272:64:64-i64:64-i128:128-f80:128-n8:16:32:64-S128"
target triple = "x86_64-pc-linux-gnu"

%class.Register = type { i32 }
%class.XMMRegister = type { i32 }
%class.Address = type { %class.Register, %class.Register, %class.XMMRegister, i32, i32, i8, [3 x i8], %class.RelocationHolder }
%class.RelocationHolder = type { [40 x i8] }
%class.Label = type <{ i32, [4 x i32], i32, ptr, i8, [7 x i8] }>

@g_assert_poison = external global ptr, align 8
@.str = private unnamed_addr constant [43 x i8] c"src/hotspot/cpu/x86/macroAssembler_x86.cpp\00", align 1
@_ZN19Abstract_VM_Version9_featuresE = external global i64, align 8

; Function Attrs: mustprogress nounwind uwtable
define linkonce_odr hidden noundef ptr @_ZNK16RelocationHolder5relocEv(ptr noundef nonnull align 8 dereferenceable(40) %0) #1 comdat align 2 {
  %2 = alloca ptr, align 8
  store ptr %0, ptr %2, align 8
  %3 = load ptr, ptr %2, align 8
  %4 = getelementptr inbounds %class.RelocationHolder, ptr %3, i32 0, i32 0
  %5 = getelementptr inbounds [40 x i8], ptr %4, i64 0, i64 0
  ret ptr %5
}

; Function Attrs: mustprogress nounwind uwtable
define linkonce_odr hidden void @_ZN5Label4initEv(ptr noundef nonnull align 8 dereferenceable(33) %0) #1 comdat align 2 {
  %2 = alloca ptr, align 8
  store ptr %0, ptr %2, align 8
  %3 = load ptr, ptr %2, align 8
  %4 = getelementptr inbounds %class.Label, ptr %3, i32 0, i32 0
  store i32 -1, ptr %4, align 8
  %5 = getelementptr inbounds %class.Label, ptr %3, i32 0, i32 2
  store i32 0, ptr %5, align 4
  %6 = getelementptr inbounds %class.Label, ptr %3, i32 0, i32 3
  store ptr null, ptr %6, align 8
  %7 = getelementptr inbounds %class.Label, ptr %3, i32 0, i32 4
  store i8 0, ptr %7, align 8
  ret void
}

; Function Attrs: mustprogress nounwind uwtable
define linkonce_odr hidden void @_ZN16RelocationHolderC2ERKS_(ptr noundef nonnull align 8 dereferenceable(40) %0, ptr noundef nonnull align 8 dereferenceable(40) %1) unnamed_addr #1 comdat align 2 {
  %3 = alloca ptr, align 8
  %4 = alloca ptr, align 8
  store ptr %0, ptr %3, align 8
  store ptr %1, ptr %4, align 8
  %5 = load ptr, ptr %3, align 8
  %6 = load ptr, ptr %4, align 8
  %7 = call noundef ptr @_ZNK16RelocationHolder5relocEv(ptr noundef nonnull align 8 dereferenceable(40) %6)
  %8 = load ptr, ptr %7, align 8
  %9 = getelementptr inbounds ptr, ptr %8, i64 2
  %10 = load ptr, ptr %9, align 8
  call void %10(ptr noundef nonnull align 8 dereferenceable(20) %7, ptr noundef nonnull align 8 dereferenceable(40) %5)
  ret void
}

; Function Attrs: mustprogress nounwind uwtable
define linkonce_odr hidden void @_ZN5LabelD2Ev(ptr noundef nonnull align 8 dereferenceable(33) %0) unnamed_addr #1 comdat align 2 {
  %2 = alloca ptr, align 8
  store ptr %0, ptr %2, align 8
  ret void
}

; Function Attrs: mustprogress nounwind uwtable
define hidden noundef i32 @_ZN14MacroAssembler16negate_conditionEN9Assembler9ConditionE(i32 noundef %0) #1 align 2 {
  %2 = alloca i32, align 4
  %3 = alloca i32, align 4
  store i32 %0, ptr %3, align 4
  %4 = load i32, ptr %3, align 4
  switch i32 %4, label %21 [
    i32 4, label %5
    i32 5, label %6
    i32 12, label %7
    i32 14, label %8
    i32 15, label %9
    i32 13, label %10
    i32 2, label %11
    i32 6, label %12
    i32 7, label %13
    i32 3, label %14
    i32 0, label %15
    i32 1, label %16
    i32 8, label %17
    i32 9, label %18
    i32 10, label %19
    i32 11, label %20
  ]

5:                                                ; preds = %1
  store i32 5, ptr %2, align 4
  br label %25

6:                                                ; preds = %1
  store i32 4, ptr %2, align 4
  br label %25

7:                                                ; preds = %1
  store i32 13, ptr %2, align 4
  br label %25

8:                                                ; preds = %1
  store i32 15, ptr %2, align 4
  br label %25

9:                                                ; preds = %1
  store i32 14, ptr %2, align 4
  br label %25

10:                                               ; preds = %1
  store i32 12, ptr %2, align 4
  br label %25

11:                                               ; preds = %1
  store i32 3, ptr %2, align 4
  br label %25

12:                                               ; preds = %1
  store i32 7, ptr %2, align 4
  br label %25

13:                                               ; preds = %1
  store i32 6, ptr %2, align 4
  br label %25

14:                                               ; preds = %1
  store i32 2, ptr %2, align 4
  br label %25

15:                                               ; preds = %1
  store i32 1, ptr %2, align 4
  br label %25

16:                                               ; preds = %1
  store i32 0, ptr %2, align 4
  br label %25

17:                                               ; preds = %1
  store i32 9, ptr %2, align 4
  br label %25

18:                                               ; preds = %1
  store i32 8, ptr %2, align 4
  br label %25

19:                                               ; preds = %1
  store i32 11, ptr %2, align 4
  br label %25

20:                                               ; preds = %1
  store i32 10, ptr %2, align 4
  br label %25

21:                                               ; preds = %1
  br label %22

22:                                               ; preds = %21
  %23 = load ptr, ptr @g_assert_poison, align 8
  store i8 88, ptr %23, align 1
  call void @_Z28report_should_not_reach_herePKci(ptr noundef @.str, i32 noundef 10202) #8
  unreachable

24:                                               ; No predecessors!
  store i32 0, ptr %2, align 4
  br label %25

25:                                               ; preds = %24, %20, %19, %18, %17, %16, %15, %14, %13, %12, %11, %10, %9, %8, %7, %6, %5
  %26 = load i32, ptr %2, align 4
  ret i32 %26
}

; Function Attrs: mustprogress nounwind uwtable
define linkonce_odr hidden void @_ZN5LabelC2Ev(ptr noundef nonnull align 8 dereferenceable(33) %0) unnamed_addr #1 comdat align 2 {
  %2 = alloca ptr, align 8
  store ptr %0, ptr %2, align 8
  %3 = load ptr, ptr %2, align 8
  call void @_ZN5Label4initEv(ptr noundef nonnull align 8 dereferenceable(33) %3)
  ret void
}

; Function Attrs: mustprogress nounwind uwtable
define linkonce_odr hidden void @_ZN7AddressC2ERKS_(ptr noundef nonnull align 8 dereferenceable(64) %0, ptr noundef nonnull align 8 dereferenceable(64) %1) unnamed_addr #1 comdat align 2 {
  %3 = alloca ptr, align 8
  %4 = alloca ptr, align 8
  store ptr %0, ptr %3, align 8
  store ptr %1, ptr %4, align 8
  %5 = load ptr, ptr %3, align 8
  %6 = getelementptr inbounds %class.Address, ptr %5, i32 0, i32 0
  %7 = load ptr, ptr %4, align 8
  %8 = getelementptr inbounds %class.Address, ptr %7, i32 0, i32 0
  call void @llvm.memcpy.p0.p0.i64(ptr align 8 %6, ptr align 8 %8, i64 21, i1 false)
  %9 = getelementptr inbounds %class.Address, ptr %5, i32 0, i32 7
  %10 = load ptr, ptr %4, align 8
  %11 = getelementptr inbounds %class.Address, ptr %10, i32 0, i32 7
  call void @_ZN16RelocationHolderC2ERKS_(ptr noundef nonnull align 8 dereferenceable(40) %9, ptr noundef nonnull align 8 dereferenceable(40) %11)
  ret void
}

; Function Attrs: mustprogress nounwind uwtable
define linkonce_odr hidden noundef zeroext i1 @_ZN10VM_Version13supports_cmovEv() #1 comdat align 2 {
  %1 = load i64, ptr @_ZN19Abstract_VM_Version9_featuresE, align 8
  %2 = and i64 %1, 2
  %3 = icmp ne i64 %2, 0
  ret i1 %3
}

; Function Attrs: mustprogress nounwind uwtable
define hidden void @_ZN14MacroAssembler6cmov32EN9Assembler9ConditionE8Register7Address(ptr noundef nonnull align 8 dereferenceable(40) %0, i32 noundef %1, i32 %2, ptr noundef %3) #1 align 2 {
  %5 = alloca %class.Register, align 4
  %6 = alloca ptr, align 8
  %7 = alloca i32, align 4
  %8 = alloca ptr, align 8
  %9 = alloca %class.Register, align 4
  %10 = alloca %class.Address, align 8
  %11 = alloca %class.Label, align 8
  %12 = alloca %class.Register, align 4
  %13 = alloca %class.Address, align 8
  %14 = getelementptr inbounds %class.Register, ptr %5, i32 0, i32 0
  store i32 %2, ptr %14, align 4
  store ptr %0, ptr %6, align 8
  store i32 %1, ptr %7, align 4
  store ptr %3, ptr %8, align 8
  %15 = load ptr, ptr %6, align 8
  %16 = call noundef zeroext i1 @_ZN10VM_Version13supports_cmovEv()
  br i1 %16, label %17, label %21

17:                                               ; preds = %4
  %18 = load i32, ptr %7, align 4
  call void @llvm.memcpy.p0.p0.i64(ptr align 4 %9, ptr align 4 %5, i64 4, i1 false)
  call void @_ZN7AddressC2ERKS_(ptr noundef nonnull align 8 dereferenceable(64) %10, ptr noundef nonnull align 8 dereferenceable(64) %3)
  %19 = getelementptr inbounds %class.Register, ptr %9, i32 0, i32 0
  %20 = load i32, ptr %19, align 4
  call void @_ZN9Assembler5cmovlENS_9ConditionE8Register7Address(ptr noundef nonnull align 8 dereferenceable(40) %15, i32 noundef %18, i32 %20, ptr noundef %10)
  br label %26

21:                                               ; preds = %4
  call void @_ZN5LabelC2Ev(ptr noundef nonnull align 8 dereferenceable(33) %11)
  %22 = load i32, ptr %7, align 4
  %23 = call noundef i32 @_ZN14MacroAssembler16negate_conditionEN9Assembler9ConditionE(i32 noundef %22)
  call void @_ZN9Assembler6jccb_0ENS_9ConditionER5LabelPKci(ptr noundef nonnull align 8 dereferenceable(40) %15, i32 noundef %23, ptr noundef nonnull align 8 dereferenceable(33) %11, ptr noundef @.str, i32 noundef 5110)
  call void @llvm.memcpy.p0.p0.i64(ptr align 4 %12, ptr align 4 %5, i64 4, i1 false)
  call void @_ZN7AddressC2ERKS_(ptr noundef nonnull align 8 dereferenceable(64) %13, ptr noundef nonnull align 8 dereferenceable(64) %3)
  %24 = getelementptr inbounds %class.Register, ptr %12, i32 0, i32 0
  %25 = load i32, ptr %24, align 4
  call void @_ZN9Assembler4movlE8Register7Address(ptr noundef nonnull align 8 dereferenceable(40) %15, i32 %25, ptr noundef %13)
  call void @_ZN17AbstractAssembler4bindER5Label(ptr noundef nonnull align 8 dereferenceable(24) %15, ptr noundef nonnull align 8 dereferenceable(33) %11)
  call void @_ZN5LabelD2Ev(ptr noundef nonnull align 8 dereferenceable(33) %11) #7
  br label %26

26:                                               ; preds = %21, %17
  ret void
}