; Function Attrs: mustprogress nounwind uwtable
define hidden void @_ZN14MacroAssembler6cmov32EN9Assembler9ConditionE8Register7Address(ptr noundef nonnull align 8 dereferenceable(40) %0, i32 noundef %1, i32 %2, ptr noundef %3) local_unnamed_addr #0 align 2 {
  %5 = alloca %class.Address, align 8
  %6 = alloca %class.Label, align 8
  %7 = alloca %class.Address, align 8
  %8 = load i64, ptr @_ZN19Abstract_VM_Version9_featuresE, align 8
  %9 = and i64 %8, 2
  %.not = icmp eq i64 %9, 0
  br i1 %.not, label %16, label %10

10:                                               ; preds = %4
  call void @llvm.memcpy.p0.p0.i64(ptr noundef nonnull align 8 dereferenceable(21) %5, ptr noundef nonnull align 8 dereferenceable(21) %3, i64 21, i1 false)
  %11 = getelementptr inbounds i8, ptr %5, i64 24
  %12 = getelementptr inbounds i8, ptr %3, i64 24
  %13 = load ptr, ptr %12, align 8
  %14 = getelementptr inbounds i8, ptr %13, i64 16
  %15 = load ptr, ptr %14, align 8
  call void %15(ptr noundef nonnull align 8 dereferenceable(20) %12, ptr noundef nonnull align 8 dereferenceable(40) %11) #18
  call void @_ZN9Assembler5cmovlENS_9ConditionE8Register7Address(ptr noundef nonnull align 8 dereferenceable(40) %0, i32 noundef %1, i32 %2, ptr noundef nonnull %5) #18
  br label %29

16:                                               ; preds = %4
  store i32 -1, ptr %6, align 8
  %17 = getelementptr inbounds i8, ptr %6, i64 20
  store i32 0, ptr %17, align 4
  %18 = getelementptr inbounds i8, ptr %6, i64 24
  store ptr null, ptr %18, align 8
  %19 = getelementptr inbounds i8, ptr %6, i64 32
  store i8 0, ptr %19, align 8
  %20 = icmp ult i32 %1, 16
  br i1 %20, label %switch.lookup, label %21

21:                                               ; preds = %16
  %22 = load ptr, ptr @g_assert_poison, align 8
  store i8 88, ptr %22, align 1
  tail call void @_Z28report_should_not_reach_herePKci(ptr noundef nonnull @.str, i32 noundef 10202) #19
  unreachable

switch.lookup:                                    ; preds = %16
  %23 = zext nneg i32 %1 to i64
  %switch.gep = getelementptr inbounds [16 x i32], ptr @switch.table._ZN14MacroAssembler6cmov32EN9Assembler9ConditionE8RegisterS2_, i64 0, i64 %23
  %switch.load = load i32, ptr %switch.gep, align 4
  call void @_ZN9Assembler6jccb_0ENS_9ConditionER5LabelPKci(ptr noundef nonnull align 8 dereferenceable(40) %0, i32 noundef %switch.load, ptr noundef nonnull align 8 dereferenceable(33) %6, ptr noundef nonnull @.str, i32 noundef 5110) #18
  call void @llvm.memcpy.p0.p0.i64(ptr noundef nonnull align 8 dereferenceable(21) %7, ptr noundef nonnull align 8 dereferenceable(21) %3, i64 21, i1 false)
  %24 = getelementptr inbounds i8, ptr %7, i64 24
  %25 = getelementptr inbounds i8, ptr %3, i64 24
  %26 = load ptr, ptr %25, align 8
  %27 = getelementptr inbounds i8, ptr %26, i64 16
  %28 = load ptr, ptr %27, align 8
  call void %28(ptr noundef nonnull align 8 dereferenceable(20) %25, ptr noundef nonnull align 8 dereferenceable(40) %24) #18
  call void @_ZN9Assembler4movlE8Register7Address(ptr noundef nonnull align 8 dereferenceable(40) %0, i32 %2, ptr noundef nonnull %7) #18
  call void @_ZN17AbstractAssembler4bindER5Label(ptr noundef nonnull align 8 dereferenceable(24) %0, ptr noundef nonnull align 8 dereferenceable(33) %6) #18
  br label %29

29:                                               ; preds = %switch.lookup, %10
  ret void
}